target datalayout = "e-m:e-p270:32:32-p271:32:32-p272:64:64-i64:64-i128:128-f80:128-n8:16:32:64-S128"
target triple = "x86_64-pc-linux-gnu"

%struct.AVChannelLayout = type { i32, i32, %union.anon.1, ptr }
%union.anon.1 = type { i64 }
%struct.AVRational = type { i32, i32 }
%struct.AVFrame = type { [8 x ptr], [8 x i32], ptr, i32, i32, i32, i32, i32, %struct.AVRational, i64, i64, %struct.AVRational, i32, ptr, i32, i32, [8 x ptr], ptr, i32, ptr, i32, i32, i32, i32, i32, i32, i32, i64, ptr, i32, ptr, ptr, i64, i64, i64, i64, ptr, %struct.AVChannelLayout, i64 }

; Function Attrs: nounwind uwtable
define internal ptr @alloc_frame_empty(i32 noundef %0, i32 noundef %1, i32 noundef %2) #1 {
  %4 = alloca ptr, align 8
  %5 = alloca i32, align 4
  %6 = alloca i32, align 4
  %7 = alloca i32, align 4
  %8 = alloca ptr, align 8
  %9 = alloca i32, align 4
  %10 = alloca i32, align 4
  store i32 %0, ptr %5, align 4, !tbaa !50
  store i32 %1, ptr %6, align 4, !tbaa !50
  store i32 %2, ptr %7, align 4, !tbaa !50
  call void @llvm.lifetime.start.p0(i64 8, ptr %8) #12
  %11 = call ptr @av_frame_alloc()
  store ptr %11, ptr %8, align 8, !tbaa !59
  %12 = load ptr, ptr %8, align 8, !tbaa !59
  %13 = icmp ne ptr %12, null
  br i1 %13, label %15, label %14

14:                                               ; preds = %3
  store ptr null, ptr %4, align 8
  store i32 1, ptr %9, align 4
  br label %113

15:                                               ; preds = %3
  %16 = load i32, ptr %5, align 4, !tbaa !50
  %17 = load ptr, ptr %8, align 8, !tbaa !59
  %18 = getelementptr inbounds nuw %struct.AVFrame, ptr %17, i32 0, i32 6
  store i32 %16, ptr %18, align 4, !tbaa !149
  %19 = load i32, ptr %6, align 4, !tbaa !50
  %20 = load ptr, ptr %8, align 8, !tbaa !59
  %21 = getelementptr inbounds nuw %struct.AVFrame, ptr %20, i32 0, i32 3
  store i32 %19, ptr %21, align 8, !tbaa !160
  %22 = load i32, ptr %7, align 4, !tbaa !50
  %23 = load ptr, ptr %8, align 8, !tbaa !59
  %24 = getelementptr inbounds nuw %struct.AVFrame, ptr %23, i32 0, i32 4
  store i32 %22, ptr %24, align 4, !tbaa !154
  %25 = load ptr, ptr %8, align 8, !tbaa !59
  %26 = call i32 @av_frame_get_buffer(ptr noundef %25, i32 noundef 0)
  %27 = icmp slt i32 %26, 0
  br i1 %27, label %28, label %29

28:                                               ; preds = %15
  call void @av_frame_free(ptr noundef %8)
  store ptr null, ptr %4, align 8
  store i32 1, ptr %9, align 4
  br label %113

29:                                               ; preds = %15
  %30 = load i32, ptr %5, align 4, !tbaa !50
  %31 = icmp eq i32 %30, 2
  br i1 %31, label %35, label %32

32:                                               ; preds = %29
  %33 = load i32, ptr %5, align 4, !tbaa !50
  %34 = icmp eq i32 %33, 26
  br i1 %34, label %35, label %47

35:                                               ; preds = %32, %29
  %36 = load ptr, ptr %8, align 8, !tbaa !59
  %37 = getelementptr inbounds nuw %struct.AVFrame, ptr %36, i32 0, i32 0
  %38 = getelementptr inbounds [8 x ptr], ptr %37, i64 0, i64 0
  %39 = load ptr, ptr %38, align 8, !tbaa !123
  %40 = load ptr, ptr %8, align 8, !tbaa !59
  %41 = getelementptr inbounds nuw %struct.AVFrame, ptr %40, i32 0, i32 1
  %42 = getelementptr inbounds [8 x i32], ptr %41, i64 0, i64 0
  %43 = load i32, ptr %42, align 8, !tbaa !50
  %44 = load i32, ptr %7, align 4, !tbaa !50
  %45 = mul nsw i32 %43, %44
  %46 = sext i32 %45 to i64
  call void @llvm.memset.p0.i64(ptr align 1 %39, i8 0, i64 %46, i1 false)
  br label %111

47:                                               ; preds = %32
  call void @llvm.lifetime.start.p0(i64 4, ptr %10) #12
  %48 = load i32, ptr %5, align 4, !tbaa !50
  %49 = icmp eq i32 %48, 0
  br i1 %49, label %53, label %50

50:                                               ; preds = %47
  %51 = load i32, ptr %5, align 4, !tbaa !50
  %52 = icmp eq i32 %51, 33
  br i1 %52, label %53, label %56

53:                                               ; preds = %50, %47
  %54 = load i32, ptr %7, align 4, !tbaa !50
  %55 = sdiv i32 %54, 2
  br label %58

56:                                               ; preds = %50
  %57 = load i32, ptr %7, align 4, !tbaa !50
  br label %58

58:                                               ; preds = %56, %53
  %59 = phi i32 [ %55, %53 ], [ %57, %56 ]
  store i32 %59, ptr %10, align 4, !tbaa !50
  %60 = load ptr, ptr %8, align 8, !tbaa !59
  %61 = getelementptr inbounds nuw %struct.AVFrame, ptr %60, i32 0, i32 0
  %62 = getelementptr inbounds [8 x ptr], ptr %61, i64 0, i64 0
  %63 = load ptr, ptr %62, align 8, !tbaa !123
  %64 = load ptr, ptr %8, align 8, !tbaa !59
  %65 = getelementptr inbounds nuw %struct.AVFrame, ptr %64, i32 0, i32 1
  %66 = getelementptr inbounds [8 x i32], ptr %65, i64 0, i64 0
  %67 = load i32, ptr %66, align 8, !tbaa !50
  %68 = load i32, ptr %7, align 4, !tbaa !50
  %69 = mul nsw i32 %67, %68
  %70 = sext i32 %69 to i64
  call void @llvm.memset.p0.i64(ptr align 1 %63, i8 16, i64 %70, i1 false)
  %71 = load ptr, ptr %8, align 8, !tbaa !59
  %72 = getelementptr inbounds nuw %struct.AVFrame, ptr %71, i32 0, i32 0
  %73 = getelementptr inbounds [8 x ptr], ptr %72, i64 0, i64 1
  %74 = load ptr, ptr %73, align 8, !tbaa !123
  %75 = load ptr, ptr %8, align 8, !tbaa !59
  %76 = getelementptr inbounds nuw %struct.AVFrame, ptr %75, i32 0, i32 1
  %77 = getelementptr inbounds [8 x i32], ptr %76, i64 0, i64 1
  %78 = load i32, ptr %77, align 4, !tbaa !50
  %79 = load i32, ptr %10, align 4, !tbaa !50
  %80 = mul nsw i32 %78, %79
  %81 = sext i32 %80 to i64
  call void @llvm.memset.p0.i64(ptr align 1 %74, i8 -128, i64 %81, i1 false)
  %82 = load ptr, ptr %8, align 8, !tbaa !59
  %83 = getelementptr inbounds nuw %struct.AVFrame, ptr %82, i32 0, i32 0
  %84 = getelementptr inbounds [8 x ptr], ptr %83, i64 0, i64 2
  %85 = load ptr, ptr %84, align 8, !tbaa !123
  %86 = load ptr, ptr %8, align 8, !tbaa !59
  %87 = getelementptr inbounds nuw %struct.AVFrame, ptr %86, i32 0, i32 1
  %88 = getelementptr inbounds [8 x i32], ptr %87, i64 0, i64 2
  %89 = load i32, ptr %88, align 8, !tbaa !50
  %90 = load i32, ptr %10, align 4, !tbaa !50
  %91 = mul nsw i32 %89, %90
  %92 = sext i32 %91 to i64
  call void @llvm.memset.p0.i64(ptr align 1 %85, i8 -128, i64 %92, i1 false)
  %93 = load ptr, ptr %8, align 8, !tbaa !59
  %94 = getelementptr inbounds nuw %struct.AVFrame, ptr %93, i32 0, i32 0
  %95 = getelementptr inbounds [8 x ptr], ptr %94, i64 0, i64 3
  %96 = load ptr, ptr %95, align 8, !tbaa !123
  %97 = icmp ne ptr %96, null
  br i1 %97, label %98, label %110

98:                                               ; preds = %58
  %99 = load ptr, ptr %8, align 8, !tbaa !59
  %100 = getelementptr inbounds nuw %struct.AVFrame, ptr %99, i32 0, i32 0
  %101 = getelementptr inbounds [8 x ptr], ptr %100, i64 0, i64 3
  %102 = load ptr, ptr %101, align 8, !tbaa !123
  %103 = load ptr, ptr %8, align 8, !tbaa !59
  %104 = getelementptr inbounds nuw %struct.AVFrame, ptr %103, i32 0, i32 1
  %105 = getelementptr inbounds [8 x i32], ptr %104, i64 0, i64 3
  %106 = load i32, ptr %105, align 4, !tbaa !50
  %107 = load i32, ptr %7, align 4, !tbaa !50
  %108 = mul nsw i32 %106, %107
  %109 = sext i32 %108 to i64
  call void @llvm.memset.p0.i64(ptr align 1 %102, i8 0, i64 %109, i1 false)
  br label %110

110:                                              ; preds = %98, %58
  call void @llvm.lifetime.end.p0(i64 4, ptr %10) #12
  br label %111

111:                                              ; preds = %110, %35
  %112 = load ptr, ptr %8, align 8, !tbaa !59
  store ptr %112, ptr %4, align 8
  store i32 1, ptr %9, align 4
  br label %113

113:                                              ; preds = %111, %28, %14
  call void @llvm.lifetime.end.p0(i64 8, ptr %8) #12
  %114 = load ptr, ptr %4, align 8
  ret ptr %114
}