; Function Attrs: nounwind uwtable
define internal fastcc ptr @alloc_frame_empty(i32 noundef %0, i32 noundef %1, i32 noundef %2) unnamed_addr #1 {
  %4 = alloca ptr, align 8
  call void @llvm.lifetime.start.p0(i64 8, ptr nonnull %4) #15
  %5 = tail call ptr @av_frame_alloc() #15
  store ptr %5, ptr %4, align 8, !tbaa !51
  %.not = icmp eq ptr %5, null
  br i1 %.not, label %48, label %6

6:                                                ; preds = %3
  %7 = getelementptr inbounds nuw i8, ptr %5, i64 116
  store i32 %0, ptr %7, align 4, !tbaa !137
  %8 = getelementptr inbounds nuw i8, ptr %5, i64 104
  store i32 %1, ptr %8, align 8, !tbaa !147
  %9 = getelementptr inbounds nuw i8, ptr %5, i64 108
  store i32 %2, ptr %9, align 4, !tbaa !142
  %10 = tail call i32 @av_frame_get_buffer(ptr noundef nonnull %5, i32 noundef 0) #15
  %11 = icmp slt i32 %10, 0
  br i1 %11, label %12, label %13

12:                                               ; preds = %6
  call void @av_frame_free(ptr noundef nonnull %4) #15
  br label %48

13:                                               ; preds = %6
  switch i32 %0, label %22 [
    i32 26, label %14
    i32 2, label %14
    i32 33, label %20
    i32 0, label %20
  ]

14:                                               ; preds = %13, %13
  %15 = load ptr, ptr %5, align 8, !tbaa !130
  %16 = getelementptr inbounds nuw i8, ptr %5, i64 64
  %17 = load i32, ptr %16, align 8, !tbaa !143
  %18 = mul nsw i32 %17, %2
  %19 = sext i32 %18 to i64
  tail call void @llvm.memset.p0.i64(ptr align 1 %15, i8 0, i64 %19, i1 false)
  br label %48

20:                                               ; preds = %13, %13
  %21 = sdiv i32 %2, 2
  br label %22

22:                                               ; preds = %13, %20
  %23 = phi i32 [ %21, %20 ], [ %2, %13 ]
  %24 = load ptr, ptr %5, align 8, !tbaa !130
  %25 = getelementptr inbounds nuw i8, ptr %5, i64 64
  %26 = load i32, ptr %25, align 8, !tbaa !143
  %27 = mul nsw i32 %26, %2
  %28 = sext i32 %27 to i64
  tail call void @llvm.memset.p0.i64(ptr align 1 %24, i8 16, i64 %28, i1 false)
  %29 = getelementptr inbounds nuw i8, ptr %5, i64 8
  %30 = load ptr, ptr %29, align 8, !tbaa !130
  %31 = getelementptr inbounds nuw i8, ptr %5, i64 68
  %32 = load i32, ptr %31, align 4, !tbaa !143
  %33 = mul nsw i32 %32, %23
  %34 = sext i32 %33 to i64
  tail call void @llvm.memset.p0.i64(ptr align 1 %30, i8 -128, i64 %34, i1 false)
  %35 = getelementptr inbounds nuw i8, ptr %5, i64 16
  %36 = load ptr, ptr %35, align 8, !tbaa !130
  %37 = getelementptr inbounds nuw i8, ptr %5, i64 72
  %38 = load i32, ptr %37, align 8, !tbaa !143
  %39 = mul nsw i32 %38, %23
  %40 = sext i32 %39 to i64
  tail call void @llvm.memset.p0.i64(ptr align 1 %36, i8 -128, i64 %40, i1 false)
  %41 = getelementptr inbounds nuw i8, ptr %5, i64 24
  %42 = load ptr, ptr %41, align 8, !tbaa !130
  %.not20 = icmp eq ptr %42, null
  br i1 %.not20, label %48, label %43

43:                                               ; preds = %22
  %44 = getelementptr inbounds nuw i8, ptr %5, i64 76
  %45 = load i32, ptr %44, align 4, !tbaa !143
  %46 = mul nsw i32 %45, %2
  %47 = sext i32 %46 to i64
  tail call void @llvm.memset.p0.i64(ptr nonnull align 1 %42, i8 0, i64 %47, i1 false)
  br label %48

48:                                               ; preds = %14, %43, %22, %3, %12
  %.0 = phi ptr [ null, %12 ], [ null, %3 ], [ %5, %22 ], [ %5, %43 ], [ %5, %14 ]
  call void @llvm.lifetime.end.p0(i64 8, ptr nonnull %4) #15
  ret ptr %.0
}